target datalayout = "e-m:e-p270:32:32-p271:32:32-p272:64:64-i64:64-i128:128-f80:128-n8:16:32:64-S128"
target triple = "x86_64-pc-linux-gnu"

%struct.ssl_st = type { i32, i16, i16, ptr, ptr, ptr, ptr, ptr, i32, i32, ptr, ptr, i32, i32, ptr, ptr, ptr, ptr, ptr, ptr, ptr, ptr, i32, i32, [32 x i8], ptr, ptr, ptr, ptr, ptr, ptr, ptr, i64, %struct.crypto_ex_data_st, ptr, i32, i32, i32, i32, i16, ptr, i32, i64, ptr, ptr, ptr, ptr, ptr, ptr, i32, i32, ptr, ptr, i8, i8, i32 }
%struct.crypto_ex_data_st = type { ptr }
%struct.ssl_protocol_method_st = type { i8, ptr, ptr, ptr, ptr, ptr, ptr, ptr, ptr, ptr, ptr, ptr, i32, ptr, ptr }
%struct.ssl3_state_st = type { [8 x i8], [8 x i8], [32 x i8], [32 x i8], i8, i8, %struct.ssl3_buffer_st, %struct.ssl3_buffer_st, %struct.ssl3_record_st, i8, i32, i32, i32, i32, ptr, ptr, %struct.env_md_ctx_st, %struct.env_md_ctx_st, i8, i32, [2 x i8], i32, i8, i8, ptr, ptr, ptr, %struct.anon, [64 x i8], i8, [64 x i8], i8, i32, i32, ptr, i64, ptr, i64, i8, [64 x i8] }
%struct.ssl3_buffer_st = type { ptr, i16, i16, i16 }
%struct.ssl3_record_st = type { i8, i16, ptr }
%struct.env_md_ctx_st = type { ptr, ptr, ptr, ptr }
%struct.anon = type { [64 x i8], i32, [64 x i8], i32, i64, i32, ptr, i32, i32, %union.anon, %union.anon.0, i8, i32, ptr, ptr, i64, ptr, i8, i8, i8, i8, i32, i8, ptr, i64, i8, ptr, i8, i8, i8, %struct.ssl_ecdh_ctx_st, ptr, i16 }
%union.anon = type { i32 }
%union.anon.0 = type { i16 }
%struct.ssl_ecdh_ctx_st = type { ptr, ptr }
%struct.dtls1_state_st = type { i32, [256 x i8], i64, i16, i16, %struct.dtls1_bitmap_st, i16, i16, i16, [8 x i8], ptr, ptr, i32, %struct.hm_header_st, i32, %struct.timeval, i16 }
%struct.dtls1_bitmap_st = type { i64, i64 }
%struct.hm_header_st = type { i8, i32, i16, i32, i32, i32, i16 }
%struct.timeval = type { i64, i64 }

; Function Attrs: nounwind uwtable
define hidden void @ssl_set_write_state(ptr noundef %0, ptr noundef %1) #0 {
  %3 = alloca ptr, align 8
  %4 = alloca ptr, align 8
  store ptr %0, ptr %3, align 8, !tbaa !16
  store ptr %1, ptr %4, align 8, !tbaa !73
  %5 = load ptr, ptr %3, align 8, !tbaa !16
  %6 = getelementptr inbounds nuw %struct.ssl_st, ptr %5, i32 0, i32 3
  %7 = load ptr, ptr %6, align 8, !tbaa !18
  %8 = getelementptr inbounds nuw %struct.ssl_protocol_method_st, ptr %7, i32 0, i32 0
  %9 = load i8, ptr %8, align 8, !tbaa !42
  %10 = icmp ne i8 %9, 0
  br i1 %10, label %11, label %28

11:                                               ; preds = %2
  %12 = load ptr, ptr %3, align 8, !tbaa !16
  %13 = getelementptr inbounds nuw %struct.ssl_st, ptr %12, i32 0, i32 15
  %14 = load ptr, ptr %13, align 8, !tbaa !74
  %15 = getelementptr inbounds nuw %struct.dtls1_state_st, ptr %14, i32 0, i32 4
  %16 = load i16, ptr %15, align 2, !tbaa !81
  %17 = add i16 %16, 1
  store i16 %17, ptr %15, align 2, !tbaa !81
  %18 = load ptr, ptr %3, align 8, !tbaa !16
  %19 = getelementptr inbounds nuw %struct.ssl_st, ptr %18, i32 0, i32 15
  %20 = load ptr, ptr %19, align 8, !tbaa !74
  %21 = getelementptr inbounds nuw %struct.dtls1_state_st, ptr %20, i32 0, i32 9
  %22 = getelementptr inbounds [8 x i8], ptr %21, i64 0, i64 0
  %23 = load ptr, ptr %3, align 8, !tbaa !16
  %24 = getelementptr inbounds nuw %struct.ssl_st, ptr %23, i32 0, i32 14
  %25 = load ptr, ptr %24, align 8, !tbaa !44
  %26 = getelementptr inbounds nuw %struct.ssl3_state_st, ptr %25, i32 0, i32 1
  %27 = getelementptr inbounds [8 x i8], ptr %26, i64 0, i64 0
  call void @llvm.memcpy.p0.p0.i64(ptr align 2 %22, ptr align 8 %27, i64 8, i1 false)
  br label %28

28:                                               ; preds = %11, %2
  %29 = load ptr, ptr %3, align 8, !tbaa !16
  %30 = getelementptr inbounds nuw %struct.ssl_st, ptr %29, i32 0, i32 14
  %31 = load ptr, ptr %30, align 8, !tbaa !44
  %32 = getelementptr inbounds nuw %struct.ssl3_state_st, ptr %31, i32 0, i32 1
  %33 = getelementptr inbounds [8 x i8], ptr %32, i64 0, i64 0
  call void @llvm.memset.p0.i64(ptr align 8 %33, i8 0, i64 8, i1 false)
  %34 = load ptr, ptr %3, align 8, !tbaa !16
  %35 = getelementptr inbounds nuw %struct.ssl_st, ptr %34, i32 0, i32 14
  %36 = load ptr, ptr %35, align 8, !tbaa !44
  %37 = getelementptr inbounds nuw %struct.ssl3_state_st, ptr %36, i32 0, i32 25
  %38 = load ptr, ptr %37, align 8, !tbaa !59
  call void @SSL_AEAD_CTX_free(ptr noundef %38)
  %39 = load ptr, ptr %4, align 8, !tbaa !73
  %40 = load ptr, ptr %3, align 8, !tbaa !16
  %41 = getelementptr inbounds nuw %struct.ssl_st, ptr %40, i32 0, i32 14
  %42 = load ptr, ptr %41, align 8, !tbaa !44
  %43 = getelementptr inbounds nuw %struct.ssl3_state_st, ptr %42, i32 0, i32 25
  store ptr %39, ptr %43, align 8, !tbaa !59
  ret void
}