; Function Attrs: nounwind uwtable
define hidden void @ssl_set_write_state(ptr noundef readonly captures(none) %0, ptr noundef %1) local_unnamed_addr #0 {
  %3 = getelementptr inbounds nuw i8, ptr %0, i64 8
  %4 = load ptr, ptr %3, align 8, !tbaa !11
  %5 = load i8, ptr %4, align 8, !tbaa !38
  %.not = icmp eq i8 %5, 0
  br i1 %.not, label %17, label %6

6:                                                ; preds = %2
  %7 = getelementptr inbounds nuw i8, ptr %0, i64 88
  %8 = load ptr, ptr %7, align 8, !tbaa !68
  %9 = getelementptr inbounds nuw i8, ptr %8, i64 274
  %10 = load i16, ptr %9, align 2, !tbaa !75
  %11 = add i16 %10, 1
  store i16 %11, ptr %9, align 2, !tbaa !75
  %12 = getelementptr inbounds nuw i8, ptr %8, i64 302
  %13 = getelementptr inbounds nuw i8, ptr %0, i64 80
  %14 = load ptr, ptr %13, align 8, !tbaa !40
  %15 = getelementptr inbounds nuw i8, ptr %14, i64 8
  %16 = load i64, ptr %15, align 8
  store i64 %16, ptr %12, align 2
  br label %17

17:                                               ; preds = %6, %2
  %18 = getelementptr inbounds nuw i8, ptr %0, i64 80
  %19 = load ptr, ptr %18, align 8, !tbaa !40
  %20 = getelementptr inbounds nuw i8, ptr %19, i64 8
  store i64 0, ptr %20, align 8
  %21 = load ptr, ptr %18, align 8, !tbaa !40
  %22 = getelementptr inbounds nuw i8, ptr %21, i64 272
  %23 = load ptr, ptr %22, align 8, !tbaa !55
  tail call void @SSL_AEAD_CTX_free(ptr noundef %23) #4
  %24 = load ptr, ptr %18, align 8, !tbaa !40
  %25 = getelementptr inbounds nuw i8, ptr %24, i64 272
  store ptr %1, ptr %25, align 8, !tbaa !55
  ret void
}